target datalayout = "e-m:e-p270:32:32-p271:32:32-p272:64:64-i64:64-i128:128-f80:128-n8:16:32:64-S128"
target triple = "x86_64-pc-linux-gnu"

%"class.nix::Pid" = type { i32, i8, i32 }

; Function Attrs: mustprogress uwtable
define void @_ZN3nix3PidaSEi(ptr noundef nonnull align 4 dereferenceable(12) %0, i32 noundef %1) #5 align 2 {
  %3 = alloca ptr, align 8
  %4 = alloca i32, align 4
  store ptr %0, ptr %3, align 8
  store i32 %1, ptr %4, align 4
  %5 = load ptr, ptr %3, align 8
  %6 = getelementptr inbounds %"class.nix::Pid", ptr %5, i32 0, i32 0
  %7 = load i32, ptr %6, align 4
  %8 = icmp ne i32 %7, -1
  br i1 %8, label %9, label %16

9:                                                ; preds = %2
  %10 = getelementptr inbounds %"class.nix::Pid", ptr %5, i32 0, i32 0
  %11 = load i32, ptr %10, align 4
  %12 = load i32, ptr %4, align 4
  %13 = icmp ne i32 %11, %12
  br i1 %13, label %14, label %16

14:                                               ; preds = %9
  %15 = call noundef i32 @_ZN3nix3Pid4killEv(ptr noundef nonnull align 4 dereferenceable(12) %5)
  br label %16

16:                                               ; preds = %14, %9, %2
  %17 = load i32, ptr %4, align 4
  %18 = getelementptr inbounds %"class.nix::Pid", ptr %5, i32 0, i32 0
  store i32 %17, ptr %18, align 4
  %19 = getelementptr inbounds %"class.nix::Pid", ptr %5, i32 0, i32 2
  store i32 9, ptr %19, align 4
  ret void
}