; Function Attrs: mustprogress uwtable
define void @_ZN3nix3PidaSEi(ptr noundef nonnull align 4 dereferenceable(12) %0, i32 noundef %1) local_unnamed_addr #6 align 2 {
  %3 = load i32, ptr %0, align 4
  %.not = icmp eq i32 %3, -1
  %.not2 = icmp eq i32 %3, %1
  %or.cond = or i1 %.not, %.not2
  br i1 %or.cond, label %6, label %4

4:                                                ; preds = %2
  %5 = tail call noundef i32 @_ZN3nix3Pid4killEv(ptr noundef nonnull align 4 dereferenceable(12) %0)
  br label %6

6:                                                ; preds = %4, %2
  store i32 %1, ptr %0, align 4
  %7 = getelementptr inbounds i8, ptr %0, i64 8
  store i32 9, ptr %7, align 4
  ret void
}